(dp0
Vengine
p1
Vpdflatex
p2
sVpackages
p3
c__builtin__
set
p4
((lp5
Vurl
p6
aVlineno
p7
atp8
Rp9
sVfiles_with_guttermarks
p10
g4
((lp11
S'Frontiers.tex'
p12
aV/Applications/packages/NMG-project/output/Frontiers/./Frontiers.tex
p13
aV/Applications/packages/NMG-project/output/Frontiers/Frontiers.tex
p14
atp15
Rp16
sVsynctex
p17
I01
s.